target datalayout = "e-m:e-p270:32:32-p271:32:32-p272:64:64-i64:64-i128:128-f80:128-n8:16:32:64-S128"
target triple = "x86_64-pc-linux-gnu"

%struct.lookup_dir_entry_st = type { ptr, i32, ptr }

@.str.1 = private unnamed_addr constant [32 x i8] c"../openssl/crypto/x509/by_dir.c\00", align 1

; Function Attrs: inlinehint nounwind uwtable
define internal void @sk_BY_DIR_HASH_pop_free(ptr noundef %0, ptr noundef %1) #3 {
  %3 = alloca ptr, align 8
  %4 = alloca ptr, align 8
  store ptr %0, ptr %3, align 8, !tbaa !66
  store ptr %1, ptr %4, align 8, !tbaa !65
  %5 = load ptr, ptr %3, align 8, !tbaa !66
  %6 = load ptr, ptr %4, align 8, !tbaa !65
  call void @OPENSSL_sk_pop_free(ptr noundef %5, ptr noundef %6)
  ret void
}

; Function Attrs: nounwind uwtable
define internal void @by_dir_entry_free(ptr noundef %0) #0 {
  %2 = alloca ptr, align 8
  store ptr %0, ptr %2, align 8, !tbaa !38
  %3 = load ptr, ptr %2, align 8, !tbaa !38
  %4 = getelementptr inbounds nuw %struct.lookup_dir_entry_st, ptr %3, i32 0, i32 0
  %5 = load ptr, ptr %4, align 8, !tbaa !40
  call void @CRYPTO_free(ptr noundef %5, ptr noundef @.str.1, i32 noundef 151)
  %6 = load ptr, ptr %2, align 8, !tbaa !38
  %7 = getelementptr inbounds nuw %struct.lookup_dir_entry_st, ptr %6, i32 0, i32 2
  %8 = load ptr, ptr %7, align 8, !tbaa !43
  call void @sk_BY_DIR_HASH_pop_free(ptr noundef %8, ptr noundef @by_dir_hash_free)
  %9 = load ptr, ptr %2, align 8, !tbaa !38
  call void @CRYPTO_free(ptr noundef %9, ptr noundef @.str.1, i32 noundef 153)
  ret void
}