; Function Attrs: nounwind uwtable
define internal void @by_dir_entry_free(ptr noundef %0) #1 {
  %2 = load ptr, ptr %0, align 8, !tbaa !21
  tail call void @CRYPTO_free(ptr noundef %2, ptr noundef nonnull @.str.1, i32 noundef 151) #8
  %3 = getelementptr inbounds nuw i8, ptr %0, i64 16
  %4 = load ptr, ptr %3, align 8, !tbaa !25
  tail call void @OPENSSL_sk_pop_free(ptr noundef %4, ptr noundef nonnull @by_dir_hash_free) #8
  tail call void @CRYPTO_free(ptr noundef nonnull %0, ptr noundef nonnull @.str.1, i32 noundef 153) #8
  ret void
}